; Function Attrs: nounwind uwtable
define i32 @OSSL_ENCODER_CTX_get_num_encoders(ptr noundef readonly captures(address_is_null) %0) local_unnamed_addr #0 {
  %2 = icmp eq ptr %0, null
  br i1 %2, label %9, label %3

3:                                                ; preds = %1
  %4 = getelementptr inbounds nuw i8, ptr %0, i64 24
  %5 = load ptr, ptr %4, align 8, !tbaa !15
  %6 = icmp eq ptr %5, null
  br i1 %6, label %9, label %7

7:                                                ; preds = %3
  %8 = tail call i32 @OPENSSL_sk_num(ptr noundef nonnull %5) #8
  br label %9

9:                                                ; preds = %1, %3, %7
  %.0 = phi i32 [ %8, %7 ], [ 0, %3 ], [ 0, %1 ]
  ret i32 %.0
}